; Function Attrs: mustprogress uwtable
define hidden void @_ZN3smt18quantifier_manager9propagateEv(ptr noundef nonnull readonly align 8 captures(none) dereferenceable(13) %0) local_unnamed_addr #4 align 2 {
  %2 = load ptr, ptr %0, align 8, !tbaa !82
  %3 = getelementptr inbounds nuw i8, ptr %2, i64 1160
  %4 = load ptr, ptr %3, align 8, !tbaa !85
  %5 = load ptr, ptr %4, align 8, !tbaa !56
  %6 = getelementptr inbounds nuw i8, ptr %5, i64 112
  %7 = load ptr, ptr %6, align 8
  tail call void %7(ptr noundef nonnull align 8 dereferenceable(8) %4)
  %8 = getelementptr inbounds nuw i8, ptr %2, i64 24
  tail call void @_ZN3smt8qi_queue11instantiateEv(ptr noundef nonnull align 8 dereferenceable(1048) %8)
  ret void
}